; Function Attrs: mustprogress nofree norecurse nosync nounwind willreturn memory(none) uwtable
define noundef ptr @_ZN4LIEF3ELF9to_stringENS0_6X86ISA4FLAGE(i32 noundef %0) local_unnamed_addr #3 {
  %.not.i.i.i.i.i.i.i = icmp sgt i32 %0, 1
  %.add.i.i = select i1 %.not.i.i.i.i.i.i.i, i64 40, i64 8
  %.add.i.i.sroa.sel = getelementptr inbounds nuw i8, ptr @__const._ZN4LIEF3ELF9to_stringENS0_6X86ISA4FLAGE.enums2str, i64 %.add.i.i
  %2 = load i32, ptr %.add.i.i.sroa.sel, align 8, !tbaa !301
  %.not.i.i.i.i.i.i.i.i = icmp slt i32 %2, %0
  %.idx.i.i.i.i.i.i.i.i = select i1 %.not.i.i.i.i.i.i.i.i, i64 16, i64 0
  %.add12.i.i = or disjoint i64 %.idx.i.i.i.i.i.i.i.i, %.add.i.i
  %.not.i.i = icmp eq i64 %.add12.i.i, 56
  br i1 %.not.i.i, label %_ZNK6frozen3mapIN4LIEF3ELF6X86ISA4FLAGEPKcLm3ESt4lessIS4_EE4findIS4_EEPKSt4pairIS4_S6_ERKT_.exit.thread, label %3

3:                                                ; preds = %1
  %.ptr14.i.i = getelementptr inbounds nuw i8, ptr @__const._ZN4LIEF3ELF9to_stringENS0_6X86ISA4FLAGE.enums2str, i64 %.add12.i.i
  %4 = load i32, ptr %.ptr14.i.i, align 8, !tbaa !301
  %.not15.i.i = icmp slt i32 %0, %4
  br i1 %.not15.i.i, label %_ZNK6frozen3mapIN4LIEF3ELF6X86ISA4FLAGEPKcLm3ESt4lessIS4_EE4findIS4_EEPKSt4pairIS4_S6_ERKT_.exit.thread, label %5

5:                                                ; preds = %3
  %6 = getelementptr inbounds nuw i8, ptr %.ptr14.i.i, i64 8
  %7 = load ptr, ptr %6, align 8, !tbaa !302
  br label %_ZNK6frozen3mapIN4LIEF3ELF6X86ISA4FLAGEPKcLm3ESt4lessIS4_EE4findIS4_EEPKSt4pairIS4_S6_ERKT_.exit.thread

_ZNK6frozen3mapIN4LIEF3ELF6X86ISA4FLAGEPKcLm3ESt4lessIS4_EE4findIS4_EEPKSt4pairIS4_S6_ERKT_.exit.thread: ; preds = %3, %1, %5
  %8 = phi ptr [ %7, %5 ], [ @.str.1, %1 ], [ @.str.1, %3 ]
  ret ptr %8
}